; Function Attrs: nofree norecurse nosync nounwind memory(readwrite, inaccessiblemem: none) uwtable
define ptr @Min_CoverCollect(ptr noundef readonly captures(none) %0, i32 noundef %1) local_unnamed_addr #8 {
  %3 = alloca ptr, align 8
  call void @llvm.lifetime.start.p0(i64 8, ptr nonnull %3)
  store ptr null, ptr %3, align 8, !tbaa !27
  %.not25 = icmp slt i32 %1, 0
  br i1 %.not25, label %._crit_edge30, label %.lr.ph29

.lr.ph29:                                         ; preds = %2
  %4 = getelementptr inbounds nuw i8, ptr %0, i64 88
  %5 = load ptr, ptr %4, align 8, !tbaa !26
  %6 = add nuw i32 %1, 1
  %wide.trip.count = zext i32 %6 to i64
  br label %7

7:                                                ; preds = %.lr.ph29, %._crit_edge
  %indvars.iv = phi i64 [ 0, %.lr.ph29 ], [ %indvars.iv.next, %._crit_edge ]
  %.01626 = phi ptr [ %3, %.lr.ph29 ], [ %.1.lcssa, %._crit_edge ]
  %8 = getelementptr inbounds nuw ptr, ptr %5, i64 %indvars.iv
  %9 = load ptr, ptr %8, align 8, !tbaa !27
  %.not18 = icmp eq ptr %9, null
  br i1 %.not18, label %._crit_edge, label %.lr.ph

.lr.ph:                                           ; preds = %7, %.lr.ph
  %.01424.sink = phi ptr [ %10, %.lr.ph ], [ %9, %7 ]
  %.122 = phi ptr [ %.01424.sink, %.lr.ph ], [ %.01626, %7 ]
  %10 = load ptr, ptr %.01424.sink, align 8, !tbaa !16
  store ptr %.01424.sink, ptr %.122, align 8, !tbaa !27
  %.not20 = icmp eq ptr %10, null
  br i1 %.not20, label %._crit_edge, label %.lr.ph, !llvm.loop !35

._crit_edge:                                      ; preds = %.lr.ph, %7
  %.1.lcssa = phi ptr [ %.01626, %7 ], [ %.01424.sink, %.lr.ph ]
  %indvars.iv.next = add nuw nsw i64 %indvars.iv, 1
  %exitcond.not = icmp eq i64 %indvars.iv.next, %wide.trip.count
  br i1 %exitcond.not, label %._crit_edge30, label %7, !llvm.loop !36

._crit_edge30:                                    ; preds = %._crit_edge, %2
  %.016.lcssa = phi ptr [ %3, %2 ], [ %.1.lcssa, %._crit_edge ]
  store ptr null, ptr %.016.lcssa, align 8, !tbaa !27
  %.0..0..0..0. = load ptr, ptr %3, align 8, !tbaa !27
  call void @llvm.lifetime.end.p0(i64 8, ptr nonnull %3)
  ret ptr %.0..0..0..0.
}